; Function Attrs: mustprogress uwtable
define hidden noundef nonnull align 8 dereferenceable(8) ptr @_ZNK5nlsat6solver7displayERSoj(ptr nocapture noundef nonnull readonly align 8 dereferenceable(16) %this, ptr noundef nonnull returned align 8 dereferenceable(8) %out, i32 noundef %x) local_unnamed_addr #4 align 2 {
entry:
  %0 = load ptr, ptr %this, align 8
  %m_proc.i = getelementptr inbounds i8, ptr %0, i64 496
  %1 = load ptr, ptr %m_proc.i, align 8
  %cmp.i = icmp eq ptr %1, null
  br i1 %cmp.i, label %if.then.i, label %if.else.i

if.then.i:                                        ; preds = %entry
  %call.i.i = tail call noundef nonnull align 8 dereferenceable(8) ptr @_ZStlsISt11char_traitsIcEERSt13basic_ostreamIcT_ES5_PKc(ptr noundef nonnull align 8 dereferenceable(8) %out, ptr noundef nonnull @.str.8)
  %call2.i.i = tail call noundef nonnull align 8 dereferenceable(8) ptr @_ZNSolsEj(ptr noundef nonnull align 8 dereferenceable(8) %call.i.i, i32 noundef %x)
  br label %_ZNK5nlsat6solver3imp21perm_display_var_procclERSoj.exit

if.else.i:                                        ; preds = %entry
  %m_perm.i = getelementptr inbounds i8, ptr %0, i64 480
  %2 = load ptr, ptr %m_perm.i, align 8
  %3 = load ptr, ptr %2, align 8
  %idxprom.i.i = zext i32 %x to i64
  %arrayidx.i.i = getelementptr inbounds i32, ptr %3, i64 %idxprom.i.i
  %4 = load i32, ptr %arrayidx.i.i, align 4
  %vtable.i = load ptr, ptr %1, align 8
  %5 = load ptr, ptr %vtable.i, align 8
  %call4.i = tail call noundef nonnull align 8 dereferenceable(8) ptr %5(ptr noundef nonnull align 8 dereferenceable(8) %1, ptr noundef nonnull align 8 dereferenceable(8) %out, i32 noundef %4)
  br label %_ZNK5nlsat6solver3imp21perm_display_var_procclERSoj.exit

_ZNK5nlsat6solver3imp21perm_display_var_procclERSoj.exit: ; preds = %if.then.i, %if.else.i
  ret ptr %out
}